; Function Attrs: mustprogress nounwind uwtable
define dso_local void @_ZN4node9inspector5Agent4StopEv(ptr nocapture noundef nonnull align 8 dereferenceable(186) %this) local_unnamed_addr #3 align 2 {
entry:
  %io_ = getelementptr inbounds i8, ptr %this, i64 24
  %0 = load ptr, ptr %io_, align 8
  store ptr null, ptr %io_, align 8
  %tobool.not.i.i = icmp eq ptr %0, null
  br i1 %tobool.not.i.i, label %_ZNSt10unique_ptrIN4node9inspector11InspectorIoESt14default_deleteIS2_EE5resetEPS2_.exit, label %_ZNKSt14default_deleteIN4node9inspector11InspectorIoEEclEPS2_.exit.i.i

_ZNKSt14default_deleteIN4node9inspector11InspectorIoEEclEPS2_.exit.i.i: ; preds = %entry
  tail call void @_ZN4node9inspector11InspectorIoD1Ev(ptr noundef nonnull align 8 dereferenceable(216) %0) #23
  tail call void @_ZdlPv(ptr noundef nonnull %0) #24
  br label %_ZNSt10unique_ptrIN4node9inspector11InspectorIoESt14default_deleteIS2_EE5resetEPS2_.exit

_ZNSt10unique_ptrIN4node9inspector11InspectorIoESt14default_deleteIS2_EE5resetEPS2_.exit: ; preds = %entry, %_ZNKSt14default_deleteIN4node9inspector11InspectorIoEEclEPS2_.exit.i.i
  ret void
}